; Function Attrs: mustprogress uwtable
define void @_ZN7rocksdb16TestWritableFile4SyncEv(ptr dead_on_unwind noalias writable sret(%"class.rocksdb::Status") align 8 %0, ptr noundef nonnull align 8 dereferenceable(120) %1) unnamed_addr #0 align 2 personality ptr @__gxx_personality_v0 {
  %3 = alloca %"class.rocksdb::Slice", align 8
  %4 = alloca %"class.rocksdb::Slice", align 8
  %5 = getelementptr inbounds nuw i8, ptr %1, i64 112
  %6 = load ptr, ptr %5, align 8, !tbaa !185
  %7 = getelementptr inbounds nuw i8, ptr %6, i64 96
  tail call void @_ZN7rocksdb4port5Mutex4LockEv(ptr noundef nonnull align 8 dereferenceable(40) %7)
  %8 = getelementptr inbounds nuw i8, ptr %6, i64 288
  %9 = load i8, ptr %8, align 8, !tbaa !98, !range !48, !noundef !49
  invoke void @_ZN7rocksdb4port5Mutex6UnlockEv(ptr noundef nonnull align 8 dereferenceable(40) %7)
          to label %_ZN7rocksdb21FaultInjectionTestEnv18IsFilesystemActiveEv.exit unwind label %10

10:                                               ; preds = %2
  %11 = landingpad { ptr, i32 }
          catch ptr null
  %12 = extractvalue { ptr, i32 } %11, 0
  tail call void @__clang_call_terminate(ptr %12) #27
  unreachable

_ZN7rocksdb21FaultInjectionTestEnv18IsFilesystemActiveEv.exit: ; preds = %2
  %13 = trunc nuw i8 %9 to i1
  br i1 %13, label %17, label %14

14:                                               ; preds = %_ZN7rocksdb21FaultInjectionTestEnv18IsFilesystemActiveEv.exit
  call void @llvm.lifetime.start.p0(i64 16, ptr nonnull %3) #22
  store ptr @.str.6, ptr %3, align 8, !tbaa !38
  %15 = getelementptr inbounds nuw i8, ptr %3, i64 8
  store i64 33, ptr %15, align 8, !tbaa !40
  call void @llvm.lifetime.start.p0(i64 16, ptr nonnull %4) #22
  store ptr @.str.1, ptr %4, align 8, !tbaa !38
  %16 = getelementptr inbounds nuw i8, ptr %4, i64 8
  store i64 0, ptr %16, align 8, !tbaa !40
  call void @_ZN7rocksdb6StatusC2ENS0_4CodeENS0_7SubCodeERKNS_5SliceES5_NS0_8SeverityE(ptr noundef nonnull align 8 dereferenceable(16) %0, i8 noundef zeroext 5, i8 noundef zeroext 0, ptr noundef nonnull align 8 dereferenceable(16) %3, ptr noundef nonnull align 8 dereferenceable(16) %4, i8 noundef zeroext 0)
  call void @llvm.lifetime.end.p0(i64 16, ptr nonnull %4) #22
  call void @llvm.lifetime.end.p0(i64 16, ptr nonnull %3) #22
  br label %24

17:                                               ; preds = %_ZN7rocksdb21FaultInjectionTestEnv18IsFilesystemActiveEv.exit
  %18 = getelementptr inbounds nuw i8, ptr %1, i64 40
  %19 = getelementptr inbounds nuw i8, ptr %1, i64 72
  %20 = load i64, ptr %19, align 8, !tbaa !186
  %21 = getelementptr inbounds nuw i8, ptr %1, i64 80
  store i64 %20, ptr %21, align 8, !tbaa !198
  %22 = load ptr, ptr %5, align 8, !tbaa !185
  tail call void @_ZN7rocksdb21FaultInjectionTestEnv18WritableFileSyncedERKNS_9FileStateE(ptr noundef nonnull align 8 dereferenceable(312) %22, ptr noundef nonnull align 8 dereferenceable(56) %18)
  %23 = getelementptr inbounds nuw i8, ptr %0, i64 8
  store ptr null, ptr %23, align 8, !tbaa !199, !alias.scope !200
  tail call void @llvm.memset.p0.i64(ptr noundef nonnull align 8 dereferenceable(16) %0, i8 0, i64 6, i1 false), !alias.scope !200
  br label %24

24:                                               ; preds = %17, %14
  ret void
}